target datalayout = "e-m:e-p270:32:32-p271:32:32-p272:64:64-i64:64-i128:128-f80:128-n8:16:32:64-S128"
target triple = "x86_64-pc-linux-gnu"

%struct.engine_st = type { ptr, ptr, ptr, ptr, ptr, ptr, ptr, ptr, ptr, ptr, ptr, ptr, ptr, ptr, ptr, ptr, ptr, ptr, ptr, i32, %struct.CRYPTO_REF_COUNT, i32, %struct.crypto_ex_data_st, ptr, ptr, ptr, ptr, ptr }
%struct.CRYPTO_REF_COUNT = type { i32 }
%struct.crypto_ex_data_st = type { ptr, ptr }

@global_engine_lock = external global ptr, align 8
@engine_lock_init = external global i32, align 4
@do_engine_lock_init_ossl_ret_ = external global i32, align 4
@.str = private unnamed_addr constant [36 x i8] c"../openssl/crypto/engine/eng_list.c\00", align 1
@__func__.ENGINE_get_first = private unnamed_addr constant [17 x i8] c"ENGINE_get_first\00", align 1
@engine_list_head = internal global ptr null, align 8

; Function Attrs: inlinehint nounwind uwtable
define internal i32 @CRYPTO_UP_REF(ptr noundef %0, ptr noundef %1) #3 {
  %3 = alloca ptr, align 8
  %4 = alloca ptr, align 8
  %5 = alloca i32, align 4
  %6 = alloca i32, align 4
  store ptr %0, ptr %3, align 8, !tbaa !8
  store ptr %1, ptr %4, align 8, !tbaa !29
  %7 = load ptr, ptr %3, align 8, !tbaa !8
  %8 = getelementptr inbounds nuw %struct.CRYPTO_REF_COUNT, ptr %7, i32 0, i32 0
  store i32 1, ptr %5, align 4, !tbaa !9
  %9 = load i32, ptr %5, align 4
  %10 = atomicrmw add ptr %8, i32 %9 monotonic, align 4
  store i32 %10, ptr %6, align 4
  %11 = load i32, ptr %6, align 4, !tbaa !9
  %12 = add nsw i32 %11, 1
  %13 = load ptr, ptr %4, align 8, !tbaa !29
  store i32 %12, ptr %13, align 4, !tbaa !9
  ret i32 1
}

; Function Attrs: nounwind uwtable
define ptr @ENGINE_get_first() #0 {
  %1 = alloca ptr, align 8
  %2 = alloca ptr, align 8
  %3 = alloca i32, align 4
  %4 = alloca i32, align 4
  call void @llvm.lifetime.start.p0(i64 8, ptr %2) #5
  %5 = call i32 @CRYPTO_THREAD_run_once(ptr noundef @engine_lock_init, ptr noundef @do_engine_lock_init_ossl_)
  %6 = icmp ne i32 %5, 0
  br i1 %6, label %7, label %10

7:                                                ; preds = %0
  %8 = load i32, ptr @do_engine_lock_init_ossl_ret_, align 4, !tbaa !9
  %9 = icmp ne i32 %8, 0
  br i1 %9, label %12, label %11

10:                                               ; preds = %0
  br i1 false, label %12, label %11

11:                                               ; preds = %10, %7
  call void @ERR_new()
  call void @ERR_set_debug(ptr noundef @.str, i32 noundef 235, ptr noundef @__func__.ENGINE_get_first)
  call void (i32, i32, ptr, ...) @ERR_set_error(i32 noundef 38, i32 noundef 524303, ptr noundef null)
  store ptr null, ptr %1, align 8
  store i32 1, ptr %3, align 4
  br label %37

12:                                               ; preds = %10, %7
  %13 = load ptr, ptr @global_engine_lock, align 8, !tbaa !8
  %14 = call i32 @CRYPTO_THREAD_write_lock(ptr noundef %13)
  %15 = icmp ne i32 %14, 0
  br i1 %15, label %17, label %16

16:                                               ; preds = %12
  store ptr null, ptr %1, align 8
  store i32 1, ptr %3, align 4
  br label %37

17:                                               ; preds = %12
  %18 = load ptr, ptr @engine_list_head, align 8, !tbaa !3
  store ptr %18, ptr %2, align 8, !tbaa !3
  %19 = load ptr, ptr %2, align 8, !tbaa !3
  %20 = icmp ne ptr %19, null
  br i1 %20, label %21, label %33

21:                                               ; preds = %17
  call void @llvm.lifetime.start.p0(i64 4, ptr %4) #5
  %22 = load ptr, ptr %2, align 8, !tbaa !3
  %23 = getelementptr inbounds nuw %struct.engine_st, ptr %22, i32 0, i32 20
  %24 = call i32 @CRYPTO_UP_REF(ptr noundef %23, ptr noundef %4)
  %25 = icmp ne i32 %24, 0
  br i1 %25, label %29, label %26

26:                                               ; preds = %21
  %27 = load ptr, ptr @global_engine_lock, align 8, !tbaa !8
  %28 = call i32 @CRYPTO_THREAD_unlock(ptr noundef %27)
  call void @ERR_new()
  call void @ERR_set_debug(ptr noundef @.str, i32 noundef 247, ptr noundef @__func__.ENGINE_get_first)
  call void (i32, i32, ptr, ...) @ERR_set_error(i32 noundef 38, i32 noundef 524303, ptr noundef null)
  store ptr null, ptr %1, align 8
  store i32 1, ptr %3, align 4
  br label %30

29:                                               ; preds = %21
  store i32 0, ptr %3, align 4
  br label %30

30:                                               ; preds = %29, %26
  call void @llvm.lifetime.end.p0(i64 4, ptr %4) #5
  %31 = load i32, ptr %3, align 4
  switch i32 %31, label %37 [
    i32 0, label %32
  ]

32:                                               ; preds = %30
  br label %33

33:                                               ; preds = %32, %17
  %34 = load ptr, ptr @global_engine_lock, align 8, !tbaa !8
  %35 = call i32 @CRYPTO_THREAD_unlock(ptr noundef %34)
  %36 = load ptr, ptr %2, align 8, !tbaa !3
  store ptr %36, ptr %1, align 8
  store i32 1, ptr %3, align 4
  br label %37

37:                                               ; preds = %33, %30, %16, %11
  call void @llvm.lifetime.end.p0(i64 8, ptr %2) #5
  %38 = load ptr, ptr %1, align 8
  ret ptr %38
}